target datalayout = "e-m:e-p270:32:32-p271:32:32-p272:64:64-i64:64-i128:128-f80:128-n8:16:32:64-S128"
target triple = "x86_64-pc-linux-gnu"

%"class.std::__cxx11::list.19" = type { %"class.std::__cxx11::_List_base.20" }
%"class.std::__cxx11::_List_base.20" = type { %"struct.std::__cxx11::_List_base<int, std::allocator<int>>::_List_impl" }
%"struct.std::__cxx11::_List_base<int, std::allocator<int>>::_List_impl" = type { %"struct.std::__detail::_List_node_header" }
%"struct.std::__detail::_List_node_header" = type { %"struct.std::__detail::_List_node_base", i64 }
%"struct.std::__detail::_List_node_base" = type { ptr, ptr }
%class.SdfGpuPlugin = type { %class.QObject, %class.FilterPlugin.base, i32, i32, i32, ptr, ptr, ptr, ptr, ptr, [3 x ptr], [3 x ptr], [3 x ptr], i32, float, float, float, float, float, ptr, ptr, ptr, i8, i8, i32, i32, i32, i32, i8, [3 x i8], %"class.vcg::tri::TriMesh<vcg::vertex::vector_ocf<CVertexO>, vcg::face::vector_ocf<CFaceO>>::PerFaceAttributeHandle", %"class.vcg::tri::TriMesh<vcg::vertex::vector_ocf<CVertexO>, vcg::face::vector_ocf<CFaceO>>::PerVertexAttributeHandle", %class.MeshLabPlugin, %class.MeshLabPluginLogger }
%class.QObject = type { ptr, %class.QScopedPointer }
%class.QScopedPointer = type { ptr }
%class.FilterPlugin.base = type { ptr, ptr, %"class.std::__cxx11::list", %"class.std::__cxx11::list.19" }
%"class.std::__cxx11::list" = type { %"class.std::__cxx11::_List_base" }
%"class.std::__cxx11::_List_base" = type { %"struct.std::__cxx11::_List_base<QAction *, std::allocator<QAction *>>::_List_impl" }
%"struct.std::__cxx11::_List_base<QAction *, std::allocator<QAction *>>::_List_impl" = type { %"struct.std::__detail::_List_node_header" }
%"class.vcg::tri::TriMesh<vcg::vertex::vector_ocf<CVertexO>, vcg::face::vector_ocf<CFaceO>>::PerFaceAttributeHandle" = type { %"class.vcg::tri::TriMesh<vcg::vertex::vector_ocf<CVertexO>, vcg::face::vector_ocf<CFaceO>>::AttributeHandle.base", [4 x i8] }
%"class.vcg::tri::TriMesh<vcg::vertex::vector_ocf<CVertexO>, vcg::face::vector_ocf<CFaceO>>::AttributeHandle.base" = type <{ ptr, i32 }>
%"class.vcg::tri::TriMesh<vcg::vertex::vector_ocf<CVertexO>, vcg::face::vector_ocf<CFaceO>>::PerVertexAttributeHandle" = type { %"class.vcg::tri::TriMesh<vcg::vertex::vector_ocf<CVertexO>, vcg::face::vector_ocf<CFaceO>>::AttributeHandle.base.25", [4 x i8] }
%"class.vcg::tri::TriMesh<vcg::vertex::vector_ocf<CVertexO>, vcg::face::vector_ocf<CFaceO>>::AttributeHandle.base.25" = type <{ ptr, i32 }>
%class.MeshLabPlugin = type { ptr, i8, %class.QFileInfo }
%class.QFileInfo = type { %class.QSharedDataPointer }
%class.QSharedDataPointer = type { ptr }
%class.MeshLabPluginLogger = type { ptr, ptr }
%class.FilterPlugin = type { ptr, ptr, %"class.std::__cxx11::list", %"class.std::__cxx11::list.19", %class.MeshLabPlugin, %class.MeshLabPluginLogger }
%class.TextureFormat = type { i32, i32, i32, i32, i32, i32, i32, i32, i32, i32 }
%class.TextureParams = type { i32, i32, i32, i32, i32, i32 }
%class.Texture2D = type { i32, %class.TextureFormat, %class.TextureParams }

@__glewUseProgram = external global ptr, align 8
@__glewBindFramebuffer = external global ptr, align 8
@__glewDeleteQueriesARB = external global ptr, align 8
@.str.107 = private unnamed_addr constant [18 x i8] c"GL release failed\00", align 1

; Function Attrs: mustprogress nounwind uwtable
define linkonce_odr void @_ZN13TextureParamsD2Ev(ptr noundef nonnull align 4 dereferenceable(24) %0) unnamed_addr #4 comdat align 2 {
  %2 = alloca ptr, align 8
  store ptr %0, ptr %2, align 8
  ret void
}

; Function Attrs: mustprogress nounwind uwtable
define linkonce_odr void @_ZN9Texture2DIfED2Ev(ptr noundef nonnull align 4 dereferenceable(68) %0) unnamed_addr #4 comdat align 2 personality ptr @__gxx_personality_v0 {
  %2 = alloca ptr, align 8
  store ptr %0, ptr %2, align 8
  %3 = load ptr, ptr %2, align 8
  %4 = getelementptr inbounds %class.Texture2D, ptr %3, i32 0, i32 0
  invoke void @glDeleteTextures(i32 noundef 1, ptr noundef %4)
          to label %5 unwind label %7

5:                                                ; preds = %1
  %6 = getelementptr inbounds %class.Texture2D, ptr %3, i32 0, i32 2
  call void @_ZN13TextureParamsD2Ev(ptr noundef nonnull align 4 dereferenceable(24) %6) #3
  ret void

7:                                                ; preds = %1
  %8 = landingpad { ptr, i32 }
          catch ptr null
  %9 = extractvalue { ptr, i32 } %8, 0
  call void @__clang_call_terminate(ptr %9) #20
  unreachable
}

; Function Attrs: mustprogress uwtable
define void @_ZN12SdfGpuPlugin9releaseGLER9MeshModel(ptr noundef nonnull align 8 dereferenceable(312) %0, ptr noundef nonnull align 8 dereferenceable(1288) %1) #5 align 2 {
  %3 = alloca ptr, align 8
  %4 = alloca ptr, align 8
  %5 = alloca i32, align 4
  store ptr %0, ptr %3, align 8
  store ptr %1, ptr %4, align 8
  %6 = load ptr, ptr %3, align 8
  %7 = load ptr, ptr @__glewUseProgram, align 8
  call void %7(i32 noundef 0)
  %8 = load ptr, ptr @__glewBindFramebuffer, align 8
  call void %8(i32 noundef 36160, i32 noundef 0)
  %9 = getelementptr inbounds %class.SdfGpuPlugin, ptr %6, i32 0, i32 19
  %10 = load ptr, ptr %9, align 8
  %11 = icmp eq ptr %10, null
  br i1 %11, label %13, label %12

12:                                               ; preds = %2
  call void @_ZN10GPUProgramD1Ev(ptr noundef nonnull align 8 dereferenceable(188) %10) #3
  call void @_ZdlPv(ptr noundef %10) #23
  br label %13

13:                                               ; preds = %12, %2
  %14 = getelementptr inbounds %class.SdfGpuPlugin, ptr %6, i32 0, i32 20
  %15 = load ptr, ptr %14, align 8
  %16 = icmp eq ptr %15, null
  br i1 %16, label %18, label %17

17:                                               ; preds = %13
  call void @_ZN10GPUProgramD1Ev(ptr noundef nonnull align 8 dereferenceable(188) %15) #3
  call void @_ZdlPv(ptr noundef %15) #23
  br label %18

18:                                               ; preds = %17, %13
  %19 = getelementptr inbounds %class.SdfGpuPlugin, ptr %6, i32 0, i32 21
  %20 = load ptr, ptr %19, align 8
  %21 = icmp eq ptr %20, null
  br i1 %21, label %23, label %22

22:                                               ; preds = %18
  call void @_ZN10GPUProgramD1Ev(ptr noundef nonnull align 8 dereferenceable(188) %20) #3
  call void @_ZdlPv(ptr noundef %20) #23
  br label %23

23:                                               ; preds = %22, %18
  %24 = getelementptr inbounds %class.SdfGpuPlugin, ptr %6, i32 0, i32 7
  %25 = load ptr, ptr %24, align 8
  %26 = icmp eq ptr %25, null
  br i1 %26, label %28, label %27

27:                                               ; preds = %23
  call void @_ZN17FramebufferObjectD1Ev(ptr noundef nonnull align 4 dereferenceable(8) %25) #3
  call void @_ZdlPv(ptr noundef %25) #23
  br label %28

28:                                               ; preds = %27, %23
  %29 = getelementptr inbounds %class.SdfGpuPlugin, ptr %6, i32 0, i32 8
  %30 = load ptr, ptr %29, align 8
  %31 = icmp eq ptr %30, null
  br i1 %31, label %33, label %32

32:                                               ; preds = %28
  call void @_ZN9Texture2DIfED2Ev(ptr noundef nonnull align 4 dereferenceable(68) %30) #3
  call void @_ZdlPv(ptr noundef %30) #23
  br label %33

33:                                               ; preds = %32, %28
  %34 = getelementptr inbounds %class.SdfGpuPlugin, ptr %6, i32 0, i32 5
  %35 = load ptr, ptr %34, align 8
  %36 = icmp eq ptr %35, null
  br i1 %36, label %38, label %37

37:                                               ; preds = %33
  call void @_ZN9Texture2DIfED2Ev(ptr noundef nonnull align 4 dereferenceable(68) %35) #3
  call void @_ZdlPv(ptr noundef %35) #23
  br label %38

38:                                               ; preds = %37, %33
  %39 = getelementptr inbounds %class.SdfGpuPlugin, ptr %6, i32 0, i32 6
  %40 = load ptr, ptr %39, align 8
  %41 = icmp eq ptr %40, null
  br i1 %41, label %43, label %42

42:                                               ; preds = %38
  call void @_ZN9Texture2DIfED2Ev(ptr noundef nonnull align 4 dereferenceable(68) %40) #3
  call void @_ZdlPv(ptr noundef %40) #23
  br label %43

43:                                               ; preds = %42, %38
  store i32 0, ptr %5, align 4
  br label %44

44:                                               ; preds = %72, %43
  %45 = load i32, ptr %5, align 4
  %46 = icmp slt i32 %45, 3
  br i1 %46, label %47, label %75

47:                                               ; preds = %44
  %48 = getelementptr inbounds %class.SdfGpuPlugin, ptr %6, i32 0, i32 10
  %49 = load i32, ptr %5, align 4
  %50 = sext i32 %49 to i64
  %51 = getelementptr inbounds [3 x ptr], ptr %48, i64 0, i64 %50
  %52 = load ptr, ptr %51, align 8
  %53 = icmp eq ptr %52, null
  br i1 %53, label %55, label %54

54:                                               ; preds = %47
  call void @_ZN17FramebufferObjectD1Ev(ptr noundef nonnull align 4 dereferenceable(8) %52) #3
  call void @_ZdlPv(ptr noundef %52) #23
  br label %55

55:                                               ; preds = %54, %47
  %56 = getelementptr inbounds %class.SdfGpuPlugin, ptr %6, i32 0, i32 11
  %57 = load i32, ptr %5, align 4
  %58 = sext i32 %57 to i64
  %59 = getelementptr inbounds [3 x ptr], ptr %56, i64 0, i64 %58
  %60 = load ptr, ptr %59, align 8
  %61 = icmp eq ptr %60, null
  br i1 %61, label %63, label %62

62:                                               ; preds = %55
  call void @_ZN9Texture2DIfED2Ev(ptr noundef nonnull align 4 dereferenceable(68) %60) #3
  call void @_ZdlPv(ptr noundef %60) #23
  br label %63

63:                                               ; preds = %62, %55
  %64 = getelementptr inbounds %class.SdfGpuPlugin, ptr %6, i32 0, i32 12
  %65 = load i32, ptr %5, align 4
  %66 = sext i32 %65 to i64
  %67 = getelementptr inbounds [3 x ptr], ptr %64, i64 0, i64 %66
  %68 = load ptr, ptr %67, align 8
  %69 = icmp eq ptr %68, null
  br i1 %69, label %71, label %70

70:                                               ; preds = %63
  call void @_ZN9Texture2DIfED2Ev(ptr noundef nonnull align 4 dereferenceable(68) %68) #3
  call void @_ZdlPv(ptr noundef %68) #23
  br label %71

71:                                               ; preds = %70, %63
  br label %72

72:                                               ; preds = %71
  %73 = load i32, ptr %5, align 4
  %74 = add nsw i32 %73, 1
  store i32 %74, ptr %5, align 4
  br label %44, !llvm.loop !35

75:                                               ; preds = %44
  %76 = load ptr, ptr @__glewDeleteQueriesARB, align 8
  %77 = getelementptr inbounds %class.SdfGpuPlugin, ptr %6, i32 0, i32 24
  call void %76(i32 noundef 1, ptr noundef %77)
  call void @_ZN12checkGLError9debugInfoEPKc(ptr noundef @.str.107)
  %78 = getelementptr inbounds i8, ptr %6, i64 16
  %79 = getelementptr inbounds %class.FilterPlugin, ptr %78, i32 0, i32 1
  %80 = load ptr, ptr %79, align 8
  %81 = load ptr, ptr %80, align 8
  %82 = getelementptr inbounds ptr, ptr %81, i64 4
  %83 = load ptr, ptr %82, align 8
  call void %83(ptr noundef nonnull align 8 dereferenceable(16) %80)
  ret void
}