; Function Attrs: mustprogress uwtable
define void @_ZN12SdfGpuPlugin9releaseGLER9MeshModel(ptr noundef nonnull align 8 dereferenceable(312) %0, ptr nocapture nonnull readnone align 8 %1) local_unnamed_addr #9 align 2 personality ptr @__gxx_personality_v0 {
  %3 = load ptr, ptr @__glewUseProgram, align 8
  tail call void %3(i32 noundef 0)
  %4 = load ptr, ptr @__glewBindFramebuffer, align 8
  tail call void %4(i32 noundef 36160, i32 noundef 0)
  %5 = getelementptr inbounds i8, ptr %0, i64 232
  %6 = load ptr, ptr %5, align 8
  %7 = icmp eq ptr %6, null
  br i1 %7, label %9, label %8

8:                                                ; preds = %2
  tail call void @_ZN10GPUProgramD1Ev(ptr noundef nonnull align 8 dereferenceable(188) %6) #26
  tail call void @_ZdlPv(ptr noundef nonnull %6) #25
  br label %9

9:                                                ; preds = %8, %2
  %10 = getelementptr inbounds i8, ptr %0, i64 240
  %11 = load ptr, ptr %10, align 8
  %12 = icmp eq ptr %11, null
  br i1 %12, label %14, label %13

13:                                               ; preds = %9
  tail call void @_ZN10GPUProgramD1Ev(ptr noundef nonnull align 8 dereferenceable(188) %11) #26
  tail call void @_ZdlPv(ptr noundef nonnull %11) #25
  br label %14

14:                                               ; preds = %13, %9
  %15 = getelementptr inbounds i8, ptr %0, i64 248
  %16 = load ptr, ptr %15, align 8
  %17 = icmp eq ptr %16, null
  br i1 %17, label %19, label %18

18:                                               ; preds = %14
  tail call void @_ZN10GPUProgramD1Ev(ptr noundef nonnull align 8 dereferenceable(188) %16) #26
  tail call void @_ZdlPv(ptr noundef nonnull %16) #25
  br label %19

19:                                               ; preds = %18, %14
  %20 = getelementptr inbounds i8, ptr %0, i64 112
  %21 = load ptr, ptr %20, align 8
  %22 = icmp eq ptr %21, null
  br i1 %22, label %24, label %23

23:                                               ; preds = %19
  tail call void @_ZN17FramebufferObjectD1Ev(ptr noundef nonnull align 4 dereferenceable(8) %21) #26
  tail call void @_ZdlPv(ptr noundef nonnull %21) #25
  br label %24

24:                                               ; preds = %23, %19
  %25 = getelementptr inbounds i8, ptr %0, i64 120
  %26 = load ptr, ptr %25, align 8
  %27 = icmp eq ptr %26, null
  br i1 %27, label %32, label %28

28:                                               ; preds = %24
  invoke void @glDeleteTextures(i32 noundef 1, ptr noundef nonnull %26)
          to label %_ZN9Texture2DIfED2Ev.exit unwind label %29

29:                                               ; preds = %28
  %30 = landingpad { ptr, i32 }
          catch ptr null
  %31 = extractvalue { ptr, i32 } %30, 0
  tail call void @__clang_call_terminate(ptr %31) #27
  unreachable

_ZN9Texture2DIfED2Ev.exit:                        ; preds = %28
  tail call void @_ZdlPv(ptr noundef nonnull %26) #25
  br label %32

32:                                               ; preds = %_ZN9Texture2DIfED2Ev.exit, %24
  %33 = getelementptr inbounds i8, ptr %0, i64 96
  %34 = load ptr, ptr %33, align 8
  %35 = icmp eq ptr %34, null
  br i1 %35, label %40, label %36

36:                                               ; preds = %32
  invoke void @glDeleteTextures(i32 noundef 1, ptr noundef nonnull %34)
          to label %_ZN9Texture2DIfED2Ev.exit15 unwind label %37

37:                                               ; preds = %36
  %38 = landingpad { ptr, i32 }
          catch ptr null
  %39 = extractvalue { ptr, i32 } %38, 0
  tail call void @__clang_call_terminate(ptr %39) #27
  unreachable

_ZN9Texture2DIfED2Ev.exit15:                      ; preds = %36
  tail call void @_ZdlPv(ptr noundef nonnull %34) #25
  br label %40

40:                                               ; preds = %_ZN9Texture2DIfED2Ev.exit15, %32
  %41 = getelementptr inbounds i8, ptr %0, i64 104
  %42 = load ptr, ptr %41, align 8
  %43 = icmp eq ptr %42, null
  br i1 %43, label %48, label %44

44:                                               ; preds = %40
  invoke void @glDeleteTextures(i32 noundef 1, ptr noundef nonnull %42)
          to label %_ZN9Texture2DIfED2Ev.exit16 unwind label %45

45:                                               ; preds = %44
  %46 = landingpad { ptr, i32 }
          catch ptr null
  %47 = extractvalue { ptr, i32 } %46, 0
  tail call void @__clang_call_terminate(ptr %47) #27
  unreachable

_ZN9Texture2DIfED2Ev.exit16:                      ; preds = %44
  tail call void @_ZdlPv(ptr noundef nonnull %42) #25
  br label %48

48:                                               ; preds = %_ZN9Texture2DIfED2Ev.exit16, %40
  %49 = getelementptr inbounds i8, ptr %0, i64 136
  %50 = getelementptr inbounds i8, ptr %0, i64 160
  %51 = getelementptr inbounds i8, ptr %0, i64 184
  br label %52

52:                                               ; preds = %48, %73
  %indvars.iv = phi i64 [ 0, %48 ], [ %indvars.iv.next, %73 ]
  %53 = getelementptr inbounds [3 x ptr], ptr %49, i64 0, i64 %indvars.iv
  %54 = load ptr, ptr %53, align 8
  %55 = icmp eq ptr %54, null
  br i1 %55, label %57, label %56

56:                                               ; preds = %52
  tail call void @_ZN17FramebufferObjectD1Ev(ptr noundef nonnull align 4 dereferenceable(8) %54) #26
  tail call void @_ZdlPv(ptr noundef nonnull %54) #25
  br label %57

57:                                               ; preds = %56, %52
  %58 = getelementptr inbounds [3 x ptr], ptr %50, i64 0, i64 %indvars.iv
  %59 = load ptr, ptr %58, align 8
  %60 = icmp eq ptr %59, null
  br i1 %60, label %65, label %61

61:                                               ; preds = %57
  invoke void @glDeleteTextures(i32 noundef 1, ptr noundef nonnull %59)
          to label %_ZN9Texture2DIfED2Ev.exit17 unwind label %62

62:                                               ; preds = %61
  %63 = landingpad { ptr, i32 }
          catch ptr null
  %64 = extractvalue { ptr, i32 } %63, 0
  tail call void @__clang_call_terminate(ptr %64) #27
  unreachable

_ZN9Texture2DIfED2Ev.exit17:                      ; preds = %61
  tail call void @_ZdlPv(ptr noundef nonnull %59) #25
  br label %65

65:                                               ; preds = %_ZN9Texture2DIfED2Ev.exit17, %57
  %66 = getelementptr inbounds [3 x ptr], ptr %51, i64 0, i64 %indvars.iv
  %67 = load ptr, ptr %66, align 8
  %68 = icmp eq ptr %67, null
  br i1 %68, label %73, label %69

69:                                               ; preds = %65
  invoke void @glDeleteTextures(i32 noundef 1, ptr noundef nonnull %67)
          to label %_ZN9Texture2DIfED2Ev.exit18 unwind label %70

70:                                               ; preds = %69
  %71 = landingpad { ptr, i32 }
          catch ptr null
  %72 = extractvalue { ptr, i32 } %71, 0
  tail call void @__clang_call_terminate(ptr %72) #27
  unreachable

_ZN9Texture2DIfED2Ev.exit18:                      ; preds = %69
  tail call void @_ZdlPv(ptr noundef nonnull %67) #25
  br label %73

73:                                               ; preds = %65, %_ZN9Texture2DIfED2Ev.exit18
  %indvars.iv.next = add nuw nsw i64 %indvars.iv, 1
  %exitcond.not = icmp eq i64 %indvars.iv.next, 3
  br i1 %exitcond.not, label %74, label %52, !llvm.loop !79

74:                                               ; preds = %73
  %75 = load ptr, ptr @__glewDeleteQueriesARB, align 8
  %76 = getelementptr inbounds i8, ptr %0, i64 260
  tail call void %75(i32 noundef 1, ptr noundef nonnull %76)
  tail call void @_ZN12checkGLError9debugInfoEPKc(ptr noundef nonnull @.str.107)
  %77 = getelementptr inbounds i8, ptr %0, i64 24
  %78 = load ptr, ptr %77, align 8
  %79 = load ptr, ptr %78, align 8
  %80 = getelementptr inbounds i8, ptr %79, i64 32
  %81 = load ptr, ptr %80, align 8
  tail call void %81(ptr noundef nonnull align 8 dereferenceable(16) %78)
  ret void
}